; ModuleID = '37/508.c'
source_filename = "37/508.c"
target datalayout = "e-m:e-p270:32:32-p271:32:32-p272:64:64-i64:64-f80:128-n8:16:32:64-S128"
target triple = "x86_64-pc-linux-gnu"

@.str = private unnamed_addr constant [3 x i8] c"%d\00", align 1
@.str.1 = private unnamed_addr constant [3 x i8] c"%s\00", align 1
@.str.2 = private unnamed_addr constant [4 x i8] c"%c\0A\00", align 1
@.str.3 = private unnamed_addr constant [4 x i8] c"no\0A\00", align 1

; Function Attrs: noinline nounwind uwtable
define dso_local void @main() #0 {
  %1 = alloca [1000 x i8], align 16
  %2 = alloca i32, align 4
  %3 = alloca i32, align 4
  %4 = alloca i32, align 4
  %5 = alloca [26 x i32], align 16
  %6 = alloca i32, align 4
  %7 = alloca i32, align 4
  store i32 0, i32* %7, align 4
  %8 = call i32 (i8*, ...) @__isoc99_scanf(i8* getelementptr inbounds ([3 x i8], [3 x i8]* @.str, i64 0, i64 0), i32* %3)
  br label %9

9:                                                ; preds = %81, %0
  %10 = load i32, i32* %3, align 4
  %11 = add nsw i32 %10, -1
  store i32 %11, i32* %3, align 4
  %12 = icmp ne i32 %10, 0
  br i1 %12, label %13, label %82

13:                                               ; preds = %9
  %14 = getelementptr inbounds [1000 x i8], [1000 x i8]* %1, i64 0, i64 0
  %15 = call i32 (i8*, ...) @__isoc99_scanf(i8* getelementptr inbounds ([3 x i8], [3 x i8]* @.str.1, i64 0, i64 0), i8* %14)
  %16 = getelementptr inbounds [1000 x i8], [1000 x i8]* %1, i64 0, i64 0
  %17 = call i64 @strlen(i8* %16) #3
  %18 = trunc i64 %17 to i32
  store i32 %18, i32* %4, align 4
  store i32 0, i32* %2, align 4
  br label %19

19:                                               ; preds = %26, %13
  %20 = load i32, i32* %2, align 4
  %21 = icmp slt i32 %20, 26
  br i1 %21, label %22, label %29

22:                                               ; preds = %19
  %23 = load i32, i32* %2, align 4
  %24 = sext i32 %23 to i64
  %25 = getelementptr inbounds [26 x i32], [26 x i32]* %5, i64 0, i64 %24
  store i32 0, i32* %25, align 4
  br label %26

26:                                               ; preds = %22
  %27 = load i32, i32* %2, align 4
  %28 = add nsw i32 %27, 1
  store i32 %28, i32* %2, align 4
  br label %19

29:                                               ; preds = %19
  store i32 0, i32* %2, align 4
  br label %30

30:                                               ; preds = %46, %29
  %31 = load i32, i32* %2, align 4
  %32 = load i32, i32* %4, align 4
  %33 = icmp slt i32 %31, %32
  br i1 %33, label %34, label %49

34:                                               ; preds = %30
  %35 = load i32, i32* %2, align 4
  %36 = sext i32 %35 to i64
  %37 = getelementptr inbounds [1000 x i8], [1000 x i8]* %1, i64 0, i64 %36
  %38 = load i8, i8* %37, align 1
  %39 = sext i8 %38 to i32
  %40 = sub nsw i32 %39, 97
  store i32 %40, i32* %6, align 4
  %41 = load i32, i32* %6, align 4
  %42 = sext i32 %41 to i64
  %43 = getelementptr inbounds [26 x i32], [26 x i32]* %5, i64 0, i64 %42
  %44 = load i32, i32* %43, align 4
  %45 = add nsw i32 %44, 1
  store i32 %45, i32* %43, align 4
  br label %46

46:                                               ; preds = %34
  %47 = load i32, i32* %2, align 4
  %48 = add nsw i32 %47, 1
  store i32 %48, i32* %2, align 4
  br label %30

49:                                               ; preds = %30
  store i32 0, i32* %2, align 4
  br label %50

50:                                               ; preds = %73, %49
  %51 = load i32, i32* %2, align 4
  %52 = load i32, i32* %4, align 4
  %53 = icmp slt i32 %51, %52
  br i1 %53, label %54, label %76

54:                                               ; preds = %50
  %55 = load i32, i32* %2, align 4
  %56 = sext i32 %55 to i64
  %57 = getelementptr inbounds [1000 x i8], [1000 x i8]* %1, i64 0, i64 %56
  %58 = load i8, i8* %57, align 1
  %59 = sext i8 %58 to i32
  %60 = sub nsw i32 %59, 97
  %61 = sext i32 %60 to i64
  %62 = getelementptr inbounds [26 x i32], [26 x i32]* %5, i64 0, i64 %61
  %63 = load i32, i32* %62, align 4
  %64 = icmp eq i32 %63, 1
  br i1 %64, label %65, label %72

65:                                               ; preds = %54
  %66 = load i32, i32* %2, align 4
  %67 = sext i32 %66 to i64
  %68 = getelementptr inbounds [1000 x i8], [1000 x i8]* %1, i64 0, i64 %67
  %69 = load i8, i8* %68, align 1
  %70 = sext i8 %69 to i32
  %71 = call i32 (i8*, ...) @printf(i8* getelementptr inbounds ([4 x i8], [4 x i8]* @.str.2, i64 0, i64 0), i32 %70)
  store i32 1, i32* %7, align 4
  br label %76

72:                                               ; preds = %54
  br label %73

73:                                               ; preds = %72
  %74 = load i32, i32* %2, align 4
  %75 = add nsw i32 %74, 1
  store i32 %75, i32* %2, align 4
  br label %50

76:                                               ; preds = %65, %50
  %77 = load i32, i32* %7, align 4
  %78 = icmp eq i32 %77, 0
  br i1 %78, label %79, label %81

79:                                               ; preds = %76
  %80 = call i32 (i8*, ...) @printf(i8* getelementptr inbounds ([4 x i8], [4 x i8]* @.str.3, i64 0, i64 0))
  br label %81

81:                                               ; preds = %79, %76
  store i32 0, i32* %7, align 4
  br label %9

82:                                               ; preds = %9
  ret void
}

declare dso_local i32 @__isoc99_scanf(i8*, ...) #1

; Function Attrs: nounwind readonly
declare dso_local i64 @strlen(i8*) #2

declare dso_local i32 @printf(i8*, ...) #1


!llvm.module.flags = !{!0}
!llvm.ident = !{!1}

!0 = !{i32 1, !"wchar_size", i32 4}
!1 = !{!"clang version 10.0.0-4ubuntu1 "}
